; ModuleID = '10/1308.c'
source_filename = "10/1308.c"
target datalayout = "e-m:e-p270:32:32-p271:32:32-p272:64:64-i64:64-f80:128-n8:16:32:64-S128"
target triple = "x86_64-pc-linux-gnu"

@.str = private unnamed_addr constant [3 x i8] c"%d\00", align 1
@n = common dso_local global i32 0, align 4
@h = common dso_local global [30 x i32] zeroinitializer, align 16
@len = common dso_local global [30 x i32] zeroinitializer, align 16
@.str.1 = private unnamed_addr constant [4 x i8] c"%d\0A\00", align 1

; Function Attrs: noinline nounwind uwtable
define dso_local i32 @main() #0 {
  %1 = alloca i32, align 4
  %2 = alloca i32, align 4
  %3 = alloca i32, align 4
  %4 = alloca i32, align 4
  %5 = alloca i32, align 4
  %6 = alloca i32, align 4
  store i32 0, i32* %1, align 4
  %7 = call i32 (i8*, ...) @__isoc99_scanf(i8* getelementptr inbounds ([3 x i8], [3 x i8]* @.str, i64 0, i64 0), i32* @n)
  store i32 0, i32* %2, align 4
  br label %8

8:                                                ; preds = %17, %0
  %9 = load i32, i32* %2, align 4
  %10 = load i32, i32* @n, align 4
  %11 = icmp slt i32 %9, %10
  br i1 %11, label %12, label %20

12:                                               ; preds = %8
  %13 = load i32, i32* %2, align 4
  %14 = sext i32 %13 to i64
  %15 = getelementptr inbounds [30 x i32], [30 x i32]* @h, i64 0, i64 %14
  %16 = call i32 (i8*, ...) @__isoc99_scanf(i8* getelementptr inbounds ([3 x i8], [3 x i8]* @.str, i64 0, i64 0), i32* %15)
  br label %17

17:                                               ; preds = %12
  %18 = load i32, i32* %2, align 4
  %19 = add nsw i32 %18, 1
  store i32 %19, i32* %2, align 4
  br label %8

20:                                               ; preds = %8
  store i32 1, i32* getelementptr inbounds ([30 x i32], [30 x i32]* @len, i64 0, i64 0), align 16
  store i32 1, i32* %3, align 4
  br label %21

21:                                               ; preds = %68, %20
  %22 = load i32, i32* %3, align 4
  %23 = load i32, i32* @n, align 4
  %24 = icmp slt i32 %22, %23
  br i1 %24, label %25, label %71

25:                                               ; preds = %21
  %26 = load i32, i32* %3, align 4
  %27 = sext i32 %26 to i64
  %28 = getelementptr inbounds [30 x i32], [30 x i32]* @len, i64 0, i64 %27
  store i32 1, i32* %28, align 4
  store i32 0, i32* %4, align 4
  br label %29

29:                                               ; preds = %64, %25
  %30 = load i32, i32* %4, align 4
  %31 = load i32, i32* %3, align 4
  %32 = icmp slt i32 %30, %31
  br i1 %32, label %33, label %67

33:                                               ; preds = %29
  %34 = load i32, i32* %4, align 4
  %35 = sext i32 %34 to i64
  %36 = getelementptr inbounds [30 x i32], [30 x i32]* @h, i64 0, i64 %35
  %37 = load i32, i32* %36, align 4
  %38 = load i32, i32* %3, align 4
  %39 = sext i32 %38 to i64
  %40 = getelementptr inbounds [30 x i32], [30 x i32]* @h, i64 0, i64 %39
  %41 = load i32, i32* %40, align 4
  %42 = icmp sge i32 %37, %41
  br i1 %42, label %43, label %63

43:                                               ; preds = %33
  %44 = load i32, i32* %4, align 4
  %45 = sext i32 %44 to i64
  %46 = getelementptr inbounds [30 x i32], [30 x i32]* @len, i64 0, i64 %45
  %47 = load i32, i32* %46, align 4
  %48 = add nsw i32 %47, 1
  %49 = load i32, i32* %3, align 4
  %50 = sext i32 %49 to i64
  %51 = getelementptr inbounds [30 x i32], [30 x i32]* @len, i64 0, i64 %50
  %52 = load i32, i32* %51, align 4
  %53 = icmp sgt i32 %48, %52
  br i1 %53, label %54, label %63

54:                                               ; preds = %43
  %55 = load i32, i32* %4, align 4
  %56 = sext i32 %55 to i64
  %57 = getelementptr inbounds [30 x i32], [30 x i32]* @len, i64 0, i64 %56
  %58 = load i32, i32* %57, align 4
  %59 = add nsw i32 %58, 1
  %60 = load i32, i32* %3, align 4
  %61 = sext i32 %60 to i64
  %62 = getelementptr inbounds [30 x i32], [30 x i32]* @len, i64 0, i64 %61
  store i32 %59, i32* %62, align 4
  br label %63

63:                                               ; preds = %54, %43, %33
  br label %64

64:                                               ; preds = %63
  %65 = load i32, i32* %4, align 4
  %66 = add nsw i32 %65, 1
  store i32 %66, i32* %4, align 4
  br label %29

67:                                               ; preds = %29
  br label %68

68:                                               ; preds = %67
  %69 = load i32, i32* %3, align 4
  %70 = add nsw i32 %69, 1
  store i32 %70, i32* %3, align 4
  br label %21

71:                                               ; preds = %21
  store i32 0, i32* %5, align 4
  store i32 0, i32* %6, align 4
  br label %72

72:                                               ; preds = %89, %71
  %73 = load i32, i32* %6, align 4
  %74 = load i32, i32* @n, align 4
  %75 = icmp slt i32 %73, %74
  br i1 %75, label %76, label %92

76:                                               ; preds = %72
  %77 = load i32, i32* %6, align 4
  %78 = sext i32 %77 to i64
  %79 = getelementptr inbounds [30 x i32], [30 x i32]* @len, i64 0, i64 %78
  %80 = load i32, i32* %79, align 4
  %81 = load i32, i32* %5, align 4
  %82 = icmp sgt i32 %80, %81
  br i1 %82, label %83, label %88

83:                                               ; preds = %76
  %84 = load i32, i32* %6, align 4
  %85 = sext i32 %84 to i64
  %86 = getelementptr inbounds [30 x i32], [30 x i32]* @len, i64 0, i64 %85
  %87 = load i32, i32* %86, align 4
  store i32 %87, i32* %5, align 4
  br label %88

88:                                               ; preds = %83, %76
  br label %89

89:                                               ; preds = %88
  %90 = load i32, i32* %6, align 4
  %91 = add nsw i32 %90, 1
  store i32 %91, i32* %6, align 4
  br label %72

92:                                               ; preds = %72
  %93 = load i32, i32* %5, align 4
  %94 = call i32 (i8*, ...) @printf(i8* getelementptr inbounds ([4 x i8], [4 x i8]* @.str.1, i64 0, i64 0), i32 %93)
  %95 = load i32, i32* %1, align 4
  ret i32 %95
}

declare dso_local i32 @__isoc99_scanf(i8*, ...) #1

declare dso_local i32 @printf(i8*, ...) #1


!llvm.module.flags = !{!0}
!llvm.ident = !{!1}

!0 = !{i32 1, !"wchar_size", i32 4}
!1 = !{!"clang version 10.0.0-4ubuntu1 "}
